; ModuleID = '33/956.c'
source_filename = "33/956.c"
target datalayout = "e-m:e-p270:32:32-p271:32:32-p272:64:64-i64:64-f80:128-n8:16:32:64-S128"
target triple = "x86_64-pc-linux-gnu"

@.str = private unnamed_addr constant [3 x i8] c"%d\00", align 1
@.str.1 = private unnamed_addr constant [3 x i8] c"%s\00", align 1
@.str.2 = private unnamed_addr constant [3 x i8] c"%c\00", align 1
@.str.3 = private unnamed_addr constant [2 x i8] c"\0A\00", align 1

; Function Attrs: noinline nounwind uwtable
define dso_local i32 @main() #0 {
  %1 = alloca i32, align 4
  %2 = alloca i32, align 4
  %3 = alloca i32, align 4
  %4 = alloca i32, align 4
  %5 = alloca [1000 x i32], align 16
  %6 = alloca i32, align 4
  %7 = alloca i32, align 4
  %8 = alloca [1000 x [2255 x i8]], align 16
  store i32 0, i32* %1, align 4
  %9 = call i32 (i8*, ...) @__isoc99_scanf(i8* getelementptr inbounds ([3 x i8], [3 x i8]* @.str, i64 0, i64 0), i32* %2)
  store i32 0, i32* %4, align 4
  br label %10

10:                                               ; preds = %143, %0
  %11 = load i32, i32* %4, align 4
  %12 = load i32, i32* %2, align 4
  %13 = icmp slt i32 %11, %12
  br i1 %13, label %14, label %146

14:                                               ; preds = %10
  %15 = load i32, i32* %4, align 4
  %16 = sext i32 %15 to i64
  %17 = getelementptr inbounds [1000 x [2255 x i8]], [1000 x [2255 x i8]]* %8, i64 0, i64 %16
  %18 = getelementptr inbounds [2255 x i8], [2255 x i8]* %17, i64 0, i64 0
  %19 = call i32 (i8*, ...) @__isoc99_scanf(i8* getelementptr inbounds ([3 x i8], [3 x i8]* @.str.1, i64 0, i64 0), i8* %18)
  %20 = load i32, i32* %4, align 4
  %21 = sext i32 %20 to i64
  %22 = getelementptr inbounds [1000 x [2255 x i8]], [1000 x [2255 x i8]]* %8, i64 0, i64 %21
  %23 = getelementptr inbounds [2255 x i8], [2255 x i8]* %22, i64 0, i64 0
  %24 = call i64 @strlen(i8* %23) #3
  %25 = trunc i64 %24 to i32
  %26 = load i32, i32* %4, align 4
  %27 = sext i32 %26 to i64
  %28 = getelementptr inbounds [1000 x i32], [1000 x i32]* %5, i64 0, i64 %27
  store i32 %25, i32* %28, align 4
  store i32 0, i32* %6, align 4
  br label %29

29:                                               ; preds = %108, %14
  %30 = load i32, i32* %6, align 4
  %31 = load i32, i32* %4, align 4
  %32 = sext i32 %31 to i64
  %33 = getelementptr inbounds [1000 x i32], [1000 x i32]* %5, i64 0, i64 %32
  %34 = load i32, i32* %33, align 4
  %35 = icmp slt i32 %30, %34
  br i1 %35, label %36, label %111

36:                                               ; preds = %29
  %37 = load i32, i32* %4, align 4
  %38 = sext i32 %37 to i64
  %39 = getelementptr inbounds [1000 x [2255 x i8]], [1000 x [2255 x i8]]* %8, i64 0, i64 %38
  %40 = load i32, i32* %6, align 4
  %41 = sext i32 %40 to i64
  %42 = getelementptr inbounds [2255 x i8], [2255 x i8]* %39, i64 0, i64 %41
  %43 = load i8, i8* %42, align 1
  %44 = sext i8 %43 to i32
  %45 = icmp eq i32 %44, 65
  br i1 %45, label %46, label %53

46:                                               ; preds = %36
  %47 = load i32, i32* %4, align 4
  %48 = sext i32 %47 to i64
  %49 = getelementptr inbounds [1000 x [2255 x i8]], [1000 x [2255 x i8]]* %8, i64 0, i64 %48
  %50 = load i32, i32* %6, align 4
  %51 = sext i32 %50 to i64
  %52 = getelementptr inbounds [2255 x i8], [2255 x i8]* %49, i64 0, i64 %51
  store i8 84, i8* %52, align 1
  br label %107

53:                                               ; preds = %36
  %54 = load i32, i32* %4, align 4
  %55 = sext i32 %54 to i64
  %56 = getelementptr inbounds [1000 x [2255 x i8]], [1000 x [2255 x i8]]* %8, i64 0, i64 %55
  %57 = load i32, i32* %6, align 4
  %58 = sext i32 %57 to i64
  %59 = getelementptr inbounds [2255 x i8], [2255 x i8]* %56, i64 0, i64 %58
  %60 = load i8, i8* %59, align 1
  %61 = sext i8 %60 to i32
  %62 = icmp eq i32 %61, 84
  br i1 %62, label %63, label %70

63:                                               ; preds = %53
  %64 = load i32, i32* %4, align 4
  %65 = sext i32 %64 to i64
  %66 = getelementptr inbounds [1000 x [2255 x i8]], [1000 x [2255 x i8]]* %8, i64 0, i64 %65
  %67 = load i32, i32* %6, align 4
  %68 = sext i32 %67 to i64
  %69 = getelementptr inbounds [2255 x i8], [2255 x i8]* %66, i64 0, i64 %68
  store i8 65, i8* %69, align 1
  br label %106

70:                                               ; preds = %53
  %71 = load i32, i32* %4, align 4
  %72 = sext i32 %71 to i64
  %73 = getelementptr inbounds [1000 x [2255 x i8]], [1000 x [2255 x i8]]* %8, i64 0, i64 %72
  %74 = load i32, i32* %6, align 4
  %75 = sext i32 %74 to i64
  %76 = getelementptr inbounds [2255 x i8], [2255 x i8]* %73, i64 0, i64 %75
  %77 = load i8, i8* %76, align 1
  %78 = sext i8 %77 to i32
  %79 = icmp eq i32 %78, 67
  br i1 %79, label %80, label %87

80:                                               ; preds = %70
  %81 = load i32, i32* %4, align 4
  %82 = sext i32 %81 to i64
  %83 = getelementptr inbounds [1000 x [2255 x i8]], [1000 x [2255 x i8]]* %8, i64 0, i64 %82
  %84 = load i32, i32* %6, align 4
  %85 = sext i32 %84 to i64
  %86 = getelementptr inbounds [2255 x i8], [2255 x i8]* %83, i64 0, i64 %85
  store i8 71, i8* %86, align 1
  br label %105

87:                                               ; preds = %70
  %88 = load i32, i32* %4, align 4
  %89 = sext i32 %88 to i64
  %90 = getelementptr inbounds [1000 x [2255 x i8]], [1000 x [2255 x i8]]* %8, i64 0, i64 %89
  %91 = load i32, i32* %6, align 4
  %92 = sext i32 %91 to i64
  %93 = getelementptr inbounds [2255 x i8], [2255 x i8]* %90, i64 0, i64 %92
  %94 = load i8, i8* %93, align 1
  %95 = sext i8 %94 to i32
  %96 = icmp eq i32 %95, 71
  br i1 %96, label %97, label %104

97:                                               ; preds = %87
  %98 = load i32, i32* %4, align 4
  %99 = sext i32 %98 to i64
  %100 = getelementptr inbounds [1000 x [2255 x i8]], [1000 x [2255 x i8]]* %8, i64 0, i64 %99
  %101 = load i32, i32* %6, align 4
  %102 = sext i32 %101 to i64
  %103 = getelementptr inbounds [2255 x i8], [2255 x i8]* %100, i64 0, i64 %102
  store i8 67, i8* %103, align 1
  br label %104

104:                                              ; preds = %97, %87
  br label %105

105:                                              ; preds = %104, %80
  br label %106

106:                                              ; preds = %105, %63
  br label %107

107:                                              ; preds = %106, %46
  br label %108

108:                                              ; preds = %107
  %109 = load i32, i32* %6, align 4
  %110 = add nsw i32 %109, 1
  store i32 %110, i32* %6, align 4
  br label %29

111:                                              ; preds = %29
  store i32 0, i32* %7, align 4
  br label %112

112:                                              ; preds = %139, %111
  %113 = load i32, i32* %7, align 4
  %114 = load i32, i32* %4, align 4
  %115 = sext i32 %114 to i64
  %116 = getelementptr inbounds [1000 x i32], [1000 x i32]* %5, i64 0, i64 %115
  %117 = load i32, i32* %116, align 4
  %118 = icmp slt i32 %113, %117
  br i1 %118, label %119, label %142

119:                                              ; preds = %112
  %120 = load i32, i32* %4, align 4
  %121 = sext i32 %120 to i64
  %122 = getelementptr inbounds [1000 x [2255 x i8]], [1000 x [2255 x i8]]* %8, i64 0, i64 %121
  %123 = load i32, i32* %7, align 4
  %124 = sext i32 %123 to i64
  %125 = getelementptr inbounds [2255 x i8], [2255 x i8]* %122, i64 0, i64 %124
  %126 = load i8, i8* %125, align 1
  %127 = sext i8 %126 to i32
  %128 = call i32 (i8*, ...) @printf(i8* getelementptr inbounds ([3 x i8], [3 x i8]* @.str.2, i64 0, i64 0), i32 %127)
  %129 = load i32, i32* %7, align 4
  %130 = load i32, i32* %4, align 4
  %131 = sext i32 %130 to i64
  %132 = getelementptr inbounds [1000 x i32], [1000 x i32]* %5, i64 0, i64 %131
  %133 = load i32, i32* %132, align 4
  %134 = sub nsw i32 %133, 1
  %135 = icmp eq i32 %129, %134
  br i1 %135, label %136, label %138

136:                                              ; preds = %119
  %137 = call i32 (i8*, ...) @printf(i8* getelementptr inbounds ([2 x i8], [2 x i8]* @.str.3, i64 0, i64 0))
  br label %138

138:                                              ; preds = %136, %119
  br label %139

139:                                              ; preds = %138
  %140 = load i32, i32* %7, align 4
  %141 = add nsw i32 %140, 1
  store i32 %141, i32* %7, align 4
  br label %112

142:                                              ; preds = %112
  br label %143

143:                                              ; preds = %142
  %144 = load i32, i32* %4, align 4
  %145 = add nsw i32 %144, 1
  store i32 %145, i32* %4, align 4
  br label %10

146:                                              ; preds = %10
  %147 = call i32 (i8*, ...) @__isoc99_scanf(i8* getelementptr inbounds ([3 x i8], [3 x i8]* @.str, i64 0, i64 0), i32* %7)
  ret i32 0
}

declare dso_local i32 @__isoc99_scanf(i8*, ...) #1

; Function Attrs: nounwind readonly
declare dso_local i64 @strlen(i8*) #2

declare dso_local i32 @printf(i8*, ...) #1


!llvm.module.flags = !{!0}
!llvm.ident = !{!1}

!0 = !{i32 1, !"wchar_size", i32 4}
!1 = !{!"clang version 10.0.0-4ubuntu1 "}
